; Function Attrs: mustprogress uwtable
define void @_ZN9grpc_core24ConnectivityStateTracker13RemoveWatcherEPNS_33ConnectivityStateWatcherInterfaceE(ptr noundef nonnull align 8 dereferenceable(56) %0, ptr noundef %1) local_unnamed_addr #3 align 2 personality ptr @__gxx_personality_v0 {
  %3 = alloca ptr, align 8
  %4 = alloca %"class.absl::lts_20240722::log_internal::LogMessage", align 8
  %5 = alloca ptr, align 8
  store ptr %1, ptr %3, align 8, !tbaa !48
  %6 = load atomic i8, ptr getelementptr inbounds nuw (i8, ptr @_ZN9grpc_core24connectivity_state_traceE, i64 16) monotonic, align 8
  %7 = trunc i8 %6 to i1
  call void @llvm.lifetime.start.p0(i64 8, ptr nonnull %5) #31
  br i1 %7, label %8, label %14, !prof !12

8:                                                ; preds = %2
  call void @llvm.lifetime.start.p0(i64 16, ptr nonnull %4) #31
  call void @_ZN4absl12lts_2024072212log_internal10LogMessageC1EPKciNS2_7InfoTagE(ptr noundef nonnull align 8 dereferenceable(16) %4, ptr noundef nonnull @.str.6, i32 noundef 138) #34
  invoke void @_ZN4absl12lts_2024072212log_internal10LogMessage19CopyToEncodedBufferILNS2_10StringTypeE0EEEvSt17basic_string_viewIcSt11char_traitsIcEE(ptr noundef nonnull align 8 dereferenceable(16) %4, i64 25, ptr nonnull @.str.7)
          to label %_ZN4absl12lts_2024072212log_internal10LogMessagelsILi26EEERS2_RAT__Kc.exit unwind label %18

_ZN4absl12lts_2024072212log_internal10LogMessagelsILi26EEERS2_RAT__Kc.exit: ; preds = %8
  %9 = invoke noundef nonnull align 8 dereferenceable(16) ptr @_ZN4absl12lts_2024072212log_internal10LogMessagelsIPKcTnNSt9enable_ifIXntsr4absl16HasAbslStringifyIT_EE5valueEiE4typeELi0EEERS2_RKS7_(ptr noundef nonnull align 8 dereferenceable(16) %4, ptr noundef nonnull align 8 dereferenceable(8) %0)
          to label %10 unwind label %18

10:                                               ; preds = %_ZN4absl12lts_2024072212log_internal10LogMessagelsILi26EEERS2_RAT__Kc.exit
  invoke void @_ZN4absl12lts_2024072212log_internal10LogMessage19CopyToEncodedBufferILNS2_10StringTypeE0EEEvSt17basic_string_viewIcSt11char_traitsIcEE(ptr noundef nonnull align 8 dereferenceable(16) %9, i64 1, ptr nonnull @.str.8)
          to label %_ZN4absl12lts_2024072212log_internal10LogMessagelsILi2EEERS2_RAT__Kc.exit unwind label %18

_ZN4absl12lts_2024072212log_internal10LogMessagelsILi2EEERS2_RAT__Kc.exit: ; preds = %10
  store ptr %0, ptr %5, align 8, !tbaa !46
  %11 = invoke noundef nonnull align 8 dereferenceable(16) ptr @_ZN4absl12lts_2024072212log_internal10LogMessagelsIPN9grpc_core24ConnectivityStateTrackerETnNSt9enable_ifIXntsr4absl16HasAbslStringifyIT_EE5valueEiE4typeELi0EEERS2_RKS8_(ptr noundef nonnull align 8 dereferenceable(16) %9, ptr noundef nonnull align 8 dereferenceable(8) %5)
          to label %12 unwind label %20

12:                                               ; preds = %_ZN4absl12lts_2024072212log_internal10LogMessagelsILi2EEERS2_RAT__Kc.exit
  invoke void @_ZN4absl12lts_2024072212log_internal10LogMessage19CopyToEncodedBufferILNS2_10StringTypeE0EEEvSt17basic_string_viewIcSt11char_traitsIcEE(ptr noundef nonnull align 8 dereferenceable(16) %11, i64 18, ptr nonnull @.str.13)
          to label %_ZN4absl12lts_2024072212log_internal10LogMessagelsILi19EEERS2_RAT__Kc.exit unwind label %20

_ZN4absl12lts_2024072212log_internal10LogMessagelsILi19EEERS2_RAT__Kc.exit: ; preds = %12
  %13 = invoke noundef nonnull align 8 dereferenceable(16) ptr @_ZN4absl12lts_2024072212log_internal10LogMessagelsIPN9grpc_core33ConnectivityStateWatcherInterfaceETnNSt9enable_ifIXntsr4absl16HasAbslStringifyIT_EE5valueEiE4typeELi0EEERS2_RKS8_(ptr noundef nonnull align 8 dereferenceable(16) %11, ptr noundef nonnull align 8 dereferenceable(8) %3)
          to label %15 unwind label %20

14:                                               ; preds = %2
  call void @llvm.lifetime.end.p0(i64 8, ptr nonnull %5) #31
  br label %.critedge11

15:                                               ; preds = %_ZN4absl12lts_2024072212log_internal10LogMessagelsILi19EEERS2_RAT__Kc.exit
  call void @llvm.lifetime.end.p0(i64 8, ptr nonnull %5) #31
  call void @_ZN4absl12lts_2024072212log_internal10LogMessageD1Ev(ptr noundef nonnull align 8 dereferenceable(16) %4) #35
  call void @llvm.lifetime.end.p0(i64 16, ptr nonnull %4) #31
  br label %.critedge11

.critedge11:                                      ; preds = %14, %15
  %16 = getelementptr inbounds nuw i8, ptr %0, i64 24
  %17 = call noundef i64 @_ZN4absl12lts_2024072218container_internal12raw_hash_setINS1_17FlatHashSetPolicyISt10unique_ptrIN9grpc_core33ConnectivityStateWatcherInterfaceENS5_16OrphanableDeleteEEEENS1_6HashEqIPS6_vE4HashENSC_2EqESaIS8_EE5eraseISB_EEmRKT_(ptr noundef nonnull align 8 dereferenceable(32) %16, ptr noundef nonnull align 8 dereferenceable(8) %3)
  ret void

18:                                               ; preds = %10, %8, %_ZN4absl12lts_2024072212log_internal10LogMessagelsILi26EEERS2_RAT__Kc.exit
  %19 = landingpad { ptr, i32 }
          cleanup
  br label %22

20:                                               ; preds = %12, %_ZN4absl12lts_2024072212log_internal10LogMessagelsILi19EEERS2_RAT__Kc.exit, %_ZN4absl12lts_2024072212log_internal10LogMessagelsILi2EEERS2_RAT__Kc.exit
  %21 = landingpad { ptr, i32 }
          cleanup
  call void @llvm.lifetime.end.p0(i64 8, ptr nonnull %5) #31
  br label %22

22:                                               ; preds = %18, %20
  %.pn = phi { ptr, i32 } [ %21, %20 ], [ %19, %18 ]
  call void @_ZN4absl12lts_2024072212log_internal10LogMessageD1Ev(ptr noundef nonnull align 8 dereferenceable(16) %4) #35
  call void @llvm.lifetime.end.p0(i64 16, ptr nonnull %4) #31
  resume { ptr, i32 } %.pn
}